target datalayout = "e-m:e-p270:32:32-p271:32:32-p272:64:64-i64:64-i128:128-f80:128-n8:16:32:64-S128"
target triple = "x86_64-pc-linux-gnu"

%"class.icu_77::RBBIStateDescriptor" = type { i8, i32, i32, ptr, i32, ptr, ptr }

; Function Attrs: mustprogress nounwind uwtable
define void @_ZN6icu_7719RBBIStateDescriptorD2Ev(ptr noundef nonnull align 8 dereferenceable(48) %0) unnamed_addr #4 align 2 {
  %2 = alloca ptr, align 8
  store ptr %0, ptr %2, align 8, !tbaa !70
  %3 = load ptr, ptr %2, align 8
  %4 = getelementptr inbounds nuw %"class.icu_77::RBBIStateDescriptor", ptr %3, i32 0, i32 5
  %5 = load ptr, ptr %4, align 8, !tbaa !72
  %6 = icmp eq ptr %5, null
  br i1 %6, label %11, label %7

7:                                                ; preds = %1
  %8 = load ptr, ptr %5, align 8, !tbaa !29
  %9 = getelementptr inbounds ptr, ptr %8, i64 1
  %10 = load ptr, ptr %9, align 8
  call void %10(ptr noundef nonnull align 8 dereferenceable(40) %5) #11
  br label %11

11:                                               ; preds = %7, %1
  %12 = getelementptr inbounds nuw %"class.icu_77::RBBIStateDescriptor", ptr %3, i32 0, i32 6
  %13 = load ptr, ptr %12, align 8, !tbaa !79
  %14 = icmp eq ptr %13, null
  br i1 %14, label %19, label %15

15:                                               ; preds = %11
  %16 = load ptr, ptr %13, align 8, !tbaa !29
  %17 = getelementptr inbounds ptr, ptr %16, i64 1
  %18 = load ptr, ptr %17, align 8
  call void %18(ptr noundef nonnull align 8 dereferenceable(32) %13) #11
  br label %19

19:                                               ; preds = %15, %11
  %20 = getelementptr inbounds nuw %"class.icu_77::RBBIStateDescriptor", ptr %3, i32 0, i32 3
  %21 = load ptr, ptr %20, align 8, !tbaa !99
  %22 = icmp eq ptr %21, null
  br i1 %22, label %27, label %23

23:                                               ; preds = %19
  %24 = load ptr, ptr %21, align 8, !tbaa !29
  %25 = getelementptr inbounds ptr, ptr %24, i64 1
  %26 = load ptr, ptr %25, align 8
  call void %26(ptr noundef nonnull align 8 dereferenceable(40) %21) #11
  br label %27

27:                                               ; preds = %23, %19
  %28 = getelementptr inbounds nuw %"class.icu_77::RBBIStateDescriptor", ptr %3, i32 0, i32 5
  store ptr null, ptr %28, align 8, !tbaa !72
  %29 = getelementptr inbounds nuw %"class.icu_77::RBBIStateDescriptor", ptr %3, i32 0, i32 6
  store ptr null, ptr %29, align 8, !tbaa !79
  %30 = getelementptr inbounds nuw %"class.icu_77::RBBIStateDescriptor", ptr %3, i32 0, i32 3
  store ptr null, ptr %30, align 8, !tbaa !99
  ret void
}